target datalayout = "e-m:e-p270:32:32-p271:32:32-p272:64:64-i64:64-i128:128-f80:128-n8:16:32:64-S128"
target triple = "x86_64-pc-linux-gnu"

%"struct.pxrInternal_v0_24__pxrReserved__::TsTest_SplineData::Knot" = type <{ double, i32, [4 x i8], double, i8, [7 x i8], double, double, double, double, double, i8, i8, [6 x i8] }>
%"struct.pxrInternal_v0_24__pxrReserved__::TsTest_SplineData::InnerLoopParams" = type { i8, double, double, double, double, i8, double }
%"struct.pxrInternal_v0_24__pxrReserved__::TsTest_SplineData::Extrapolation" = type <{ i32, [4 x i8], double, i32, [4 x i8] }>
%"class.pxrInternal_v0_24__pxrReserved__::TsTest_SplineData" = type { i8, %"class.std::set", %"struct.pxrInternal_v0_24__pxrReserved__::TsTest_SplineData::Extrapolation", %"struct.pxrInternal_v0_24__pxrReserved__::TsTest_SplineData::Extrapolation", %"struct.pxrInternal_v0_24__pxrReserved__::TsTest_SplineData::InnerLoopParams" }
%"class.std::set" = type { %"class.std::_Rb_tree" }
%"class.std::_Rb_tree" = type { %"struct.std::_Rb_tree<pxrInternal_v0_24__pxrReserved__::TsTest_SplineData::Knot, pxrInternal_v0_24__pxrReserved__::TsTest_SplineData::Knot, std::_Identity<pxrInternal_v0_24__pxrReserved__::TsTest_SplineData::Knot>, std::less<pxrInternal_v0_24__pxrReserved__::TsTest_SplineData::Knot>>::_Rb_tree_impl" }
%"struct.std::_Rb_tree<pxrInternal_v0_24__pxrReserved__::TsTest_SplineData::Knot, pxrInternal_v0_24__pxrReserved__::TsTest_SplineData::Knot, std::_Identity<pxrInternal_v0_24__pxrReserved__::TsTest_SplineData::Knot>, std::less<pxrInternal_v0_24__pxrReserved__::TsTest_SplineData::Knot>>::_Rb_tree_impl" = type { [8 x i8], %"struct.std::_Rb_tree_header" }
%"struct.std::_Rb_tree_header" = type { %"struct.std::_Rb_tree_node_base", i64 }
%"struct.std::_Rb_tree_node_base" = type { i32, ptr, ptr, ptr }
%"struct.std::_Rb_tree_const_iterator" = type { ptr }
%"struct.std::_Rb_tree_node" = type { %"struct.std::_Rb_tree_node_base", %"struct.__gnu_cxx::__aligned_membuf" }
%"struct.__gnu_cxx::__aligned_membuf" = type { [80 x i8] }

; Function Attrs: mustprogress nounwind uwtable
define linkonce_odr noundef ptr @_ZNK9__gnu_cxx16__aligned_membufIN32pxrInternal_v0_24__pxrReserved__17TsTest_SplineData4KnotEE7_M_addrEv(ptr noundef nonnull align 8 dereferenceable(80) %0) #2 comdat align 2 {
  %2 = alloca ptr, align 8
  store ptr %0, ptr %2, align 8
  %3 = load ptr, ptr %2, align 8
  %4 = getelementptr inbounds nuw %"struct.__gnu_cxx::__aligned_membuf", ptr %3, i32 0, i32 0
  ret ptr %4
}

; Function Attrs: mustprogress nounwind uwtable
define linkonce_odr noundef ptr @_ZNK9__gnu_cxx16__aligned_membufIN32pxrInternal_v0_24__pxrReserved__17TsTest_SplineData4KnotEE6_M_ptrEv(ptr noundef nonnull align 8 dereferenceable(80) %0) #2 comdat align 2 {
  %2 = alloca ptr, align 8
  store ptr %0, ptr %2, align 8
  %3 = load ptr, ptr %2, align 8
  %4 = call noundef ptr @_ZNK9__gnu_cxx16__aligned_membufIN32pxrInternal_v0_24__pxrReserved__17TsTest_SplineData4KnotEE7_M_addrEv(ptr noundef nonnull align 8 dereferenceable(80) %3) #6
  ret ptr %4
}

; Function Attrs: mustprogress nounwind uwtable
define linkonce_odr void @_ZNSt23_Rb_tree_const_iteratorIN32pxrInternal_v0_24__pxrReserved__17TsTest_SplineData4KnotEEC2EPKSt18_Rb_tree_node_base(ptr noundef nonnull align 8 dereferenceable(8) %0, ptr noundef %1) unnamed_addr #2 comdat align 2 {
  %3 = alloca ptr, align 8
  %4 = alloca ptr, align 8
  store ptr %0, ptr %3, align 8
  store ptr %1, ptr %4, align 8
  %5 = load ptr, ptr %3, align 8
  %6 = getelementptr inbounds nuw %"struct.std::_Rb_tree_const_iterator", ptr %5, i32 0, i32 0
  %7 = load ptr, ptr %4, align 8
  store ptr %7, ptr %6, align 8
  ret void
}

; Function Attrs: mustprogress nounwind uwtable
define linkonce_odr noundef ptr @_ZNKSt13_Rb_tree_nodeIN32pxrInternal_v0_24__pxrReserved__17TsTest_SplineData4KnotEE9_M_valptrEv(ptr noundef nonnull align 8 dereferenceable(112) %0) #2 comdat align 2 {
  %2 = alloca ptr, align 8
  store ptr %0, ptr %2, align 8
  %3 = load ptr, ptr %2, align 8
  %4 = getelementptr inbounds nuw %"struct.std::_Rb_tree_node", ptr %3, i32 0, i32 1
  %5 = call noundef ptr @_ZNK9__gnu_cxx16__aligned_membufIN32pxrInternal_v0_24__pxrReserved__17TsTest_SplineData4KnotEE6_M_ptrEv(ptr noundef nonnull align 8 dereferenceable(80) %4) #6
  ret ptr %5
}

; Function Attrs: mustprogress nounwind uwtable
define linkonce_odr ptr @_ZNKSt8_Rb_treeIN32pxrInternal_v0_24__pxrReserved__17TsTest_SplineData4KnotES2_St9_IdentityIS2_ESt4lessIS2_ESaIS2_EE3endEv(ptr noundef nonnull align 8 dereferenceable(48) %0) #2 comdat align 2 {
  %2 = alloca %"struct.std::_Rb_tree_const_iterator", align 8
  %3 = alloca ptr, align 8
  store ptr %0, ptr %3, align 8
  %4 = load ptr, ptr %3, align 8
  %5 = getelementptr inbounds nuw %"class.std::_Rb_tree", ptr %4, i32 0, i32 0
  %6 = getelementptr inbounds i8, ptr %5, i64 8
  %7 = getelementptr inbounds nuw %"struct.std::_Rb_tree_header", ptr %6, i32 0, i32 0
  call void @_ZNSt23_Rb_tree_const_iteratorIN32pxrInternal_v0_24__pxrReserved__17TsTest_SplineData4KnotEEC2EPKSt18_Rb_tree_node_base(ptr noundef nonnull align 8 dereferenceable(8) %2, ptr noundef %7) #6
  %8 = getelementptr inbounds nuw %"struct.std::_Rb_tree_const_iterator", ptr %2, i32 0, i32 0
  %9 = load ptr, ptr %8, align 8
  ret ptr %9
}

; Function Attrs: mustprogress nounwind uwtable
define linkonce_odr ptr @_ZNKSt8_Rb_treeIN32pxrInternal_v0_24__pxrReserved__17TsTest_SplineData4KnotES2_St9_IdentityIS2_ESt4lessIS2_ESaIS2_EE5beginEv(ptr noundef nonnull align 8 dereferenceable(48) %0) #2 comdat align 2 {
  %2 = alloca %"struct.std::_Rb_tree_const_iterator", align 8
  %3 = alloca ptr, align 8
  store ptr %0, ptr %3, align 8
  %4 = load ptr, ptr %3, align 8
  %5 = getelementptr inbounds nuw %"class.std::_Rb_tree", ptr %4, i32 0, i32 0
  %6 = getelementptr inbounds i8, ptr %5, i64 8
  %7 = getelementptr inbounds nuw %"struct.std::_Rb_tree_header", ptr %6, i32 0, i32 0
  %8 = getelementptr inbounds nuw %"struct.std::_Rb_tree_node_base", ptr %7, i32 0, i32 2
  %9 = load ptr, ptr %8, align 8
  call void @_ZNSt23_Rb_tree_const_iteratorIN32pxrInternal_v0_24__pxrReserved__17TsTest_SplineData4KnotEEC2EPKSt18_Rb_tree_node_base(ptr noundef nonnull align 8 dereferenceable(8) %2, ptr noundef %9) #6
  %10 = getelementptr inbounds nuw %"struct.std::_Rb_tree_const_iterator", ptr %2, i32 0, i32 0
  %11 = load ptr, ptr %10, align 8
  ret ptr %11
}

; Function Attrs: mustprogress nounwind uwtable
define linkonce_odr noundef nonnull align 8 dereferenceable(8) ptr @_ZNSt23_Rb_tree_const_iteratorIN32pxrInternal_v0_24__pxrReserved__17TsTest_SplineData4KnotEEppEv(ptr noundef nonnull align 8 dereferenceable(8) %0) #2 comdat align 2 {
  %2 = alloca ptr, align 8
  store ptr %0, ptr %2, align 8
  %3 = load ptr, ptr %2, align 8
  %4 = getelementptr inbounds nuw %"struct.std::_Rb_tree_const_iterator", ptr %3, i32 0, i32 0
  %5 = load ptr, ptr %4, align 8
  %6 = call noundef ptr @_ZSt18_Rb_tree_incrementPKSt18_Rb_tree_node_base(ptr noundef %5) #12
  %7 = getelementptr inbounds nuw %"struct.std::_Rb_tree_const_iterator", ptr %3, i32 0, i32 0
  store ptr %6, ptr %7, align 8
  ret ptr %3
}

; Function Attrs: mustprogress nounwind uwtable
define linkonce_odr noundef nonnull align 8 dereferenceable(74) ptr @_ZNKSt23_Rb_tree_const_iteratorIN32pxrInternal_v0_24__pxrReserved__17TsTest_SplineData4KnotEEdeEv(ptr noundef nonnull align 8 dereferenceable(8) %0) #2 comdat align 2 {
  %2 = alloca ptr, align 8
  store ptr %0, ptr %2, align 8
  %3 = load ptr, ptr %2, align 8
  %4 = getelementptr inbounds nuw %"struct.std::_Rb_tree_const_iterator", ptr %3, i32 0, i32 0
  %5 = load ptr, ptr %4, align 8
  %6 = call noundef ptr @_ZNKSt13_Rb_tree_nodeIN32pxrInternal_v0_24__pxrReserved__17TsTest_SplineData4KnotEE9_M_valptrEv(ptr noundef nonnull align 8 dereferenceable(112) %5)
  ret ptr %6
}

; Function Attrs: mustprogress nounwind uwtable
define linkonce_odr noundef zeroext i1 @_ZStneRKSt23_Rb_tree_const_iteratorIN32pxrInternal_v0_24__pxrReserved__17TsTest_SplineData4KnotEES5_(ptr noundef nonnull align 8 dereferenceable(8) %0, ptr noundef nonnull align 8 dereferenceable(8) %1) #2 comdat {
  %3 = alloca ptr, align 8
  %4 = alloca ptr, align 8
  store ptr %0, ptr %3, align 8
  store ptr %1, ptr %4, align 8
  %5 = load ptr, ptr %3, align 8
  %6 = getelementptr inbounds nuw %"struct.std::_Rb_tree_const_iterator", ptr %5, i32 0, i32 0
  %7 = load ptr, ptr %6, align 8
  %8 = load ptr, ptr %4, align 8
  %9 = getelementptr inbounds nuw %"struct.std::_Rb_tree_const_iterator", ptr %8, i32 0, i32 0
  %10 = load ptr, ptr %9, align 8
  %11 = icmp ne ptr %7, %10
  ret i1 %11
}

; Function Attrs: mustprogress nounwind uwtable
define linkonce_odr ptr @_ZNKSt3setIN32pxrInternal_v0_24__pxrReserved__17TsTest_SplineData4KnotESt4lessIS2_ESaIS2_EE3endEv(ptr noundef nonnull align 8 dereferenceable(48) %0) #2 comdat align 2 {
  %2 = alloca %"struct.std::_Rb_tree_const_iterator", align 8
  %3 = alloca ptr, align 8
  store ptr %0, ptr %3, align 8
  %4 = load ptr, ptr %3, align 8
  %5 = getelementptr inbounds nuw %"class.std::set", ptr %4, i32 0, i32 0
  %6 = call ptr @_ZNKSt8_Rb_treeIN32pxrInternal_v0_24__pxrReserved__17TsTest_SplineData4KnotES2_St9_IdentityIS2_ESt4lessIS2_ESaIS2_EE3endEv(ptr noundef nonnull align 8 dereferenceable(48) %5) #6
  %7 = getelementptr inbounds nuw %"struct.std::_Rb_tree_const_iterator", ptr %2, i32 0, i32 0
  store ptr %6, ptr %7, align 8
  %8 = getelementptr inbounds nuw %"struct.std::_Rb_tree_const_iterator", ptr %2, i32 0, i32 0
  %9 = load ptr, ptr %8, align 8
  ret ptr %9
}

; Function Attrs: mustprogress nounwind uwtable
define linkonce_odr ptr @_ZNKSt3setIN32pxrInternal_v0_24__pxrReserved__17TsTest_SplineData4KnotESt4lessIS2_ESaIS2_EE5beginEv(ptr noundef nonnull align 8 dereferenceable(48) %0) #2 comdat align 2 {
  %2 = alloca %"struct.std::_Rb_tree_const_iterator", align 8
  %3 = alloca ptr, align 8
  store ptr %0, ptr %3, align 8
  %4 = load ptr, ptr %3, align 8
  %5 = getelementptr inbounds nuw %"class.std::set", ptr %4, i32 0, i32 0
  %6 = call ptr @_ZNKSt8_Rb_treeIN32pxrInternal_v0_24__pxrReserved__17TsTest_SplineData4KnotES2_St9_IdentityIS2_ESt4lessIS2_ESaIS2_EE5beginEv(ptr noundef nonnull align 8 dereferenceable(48) %5) #6
  %7 = getelementptr inbounds nuw %"struct.std::_Rb_tree_const_iterator", ptr %2, i32 0, i32 0
  store ptr %6, ptr %7, align 8
  %8 = getelementptr inbounds nuw %"struct.std::_Rb_tree_const_iterator", ptr %2, i32 0, i32 0
  %9 = load ptr, ptr %8, align 8
  ret ptr %9
}

; Function Attrs: mustprogress nounwind uwtable
define noundef i32 @_ZNK32pxrInternal_v0_24__pxrReserved__17TsTest_SplineData19GetRequiredFeaturesEv(ptr noundef nonnull align 8 dereferenceable(160) %0) #2 align 2 {
  %2 = alloca ptr, align 8
  %3 = alloca i32, align 4
  %4 = alloca ptr, align 8
  %5 = alloca %"struct.std::_Rb_tree_const_iterator", align 8
  %6 = alloca %"struct.std::_Rb_tree_const_iterator", align 8
  %7 = alloca ptr, align 8
  store ptr %0, ptr %2, align 8
  %8 = load ptr, ptr %2, align 8
  store i32 0, ptr %3, align 4
  %9 = getelementptr inbounds nuw %"class.pxrInternal_v0_24__pxrReserved__::TsTest_SplineData", ptr %8, i32 0, i32 1
  store ptr %9, ptr %4, align 8
  %10 = load ptr, ptr %4, align 8
  %11 = call ptr @_ZNKSt3setIN32pxrInternal_v0_24__pxrReserved__17TsTest_SplineData4KnotESt4lessIS2_ESaIS2_EE5beginEv(ptr noundef nonnull align 8 dereferenceable(48) %10) #6
  %12 = getelementptr inbounds nuw %"struct.std::_Rb_tree_const_iterator", ptr %5, i32 0, i32 0
  store ptr %11, ptr %12, align 8
  %13 = load ptr, ptr %4, align 8
  %14 = call ptr @_ZNKSt3setIN32pxrInternal_v0_24__pxrReserved__17TsTest_SplineData4KnotESt4lessIS2_ESaIS2_EE3endEv(ptr noundef nonnull align 8 dereferenceable(48) %13) #6
  %15 = getelementptr inbounds nuw %"struct.std::_Rb_tree_const_iterator", ptr %6, i32 0, i32 0
  store ptr %14, ptr %15, align 8
  br label %16

16:                                               ; preds = %58, %1
  %17 = call noundef zeroext i1 @_ZStneRKSt23_Rb_tree_const_iteratorIN32pxrInternal_v0_24__pxrReserved__17TsTest_SplineData4KnotEES5_(ptr noundef nonnull align 8 dereferenceable(8) %5, ptr noundef nonnull align 8 dereferenceable(8) %6) #6
  br i1 %17, label %18, label %60

18:                                               ; preds = %16
  %19 = call noundef nonnull align 8 dereferenceable(74) ptr @_ZNKSt23_Rb_tree_const_iteratorIN32pxrInternal_v0_24__pxrReserved__17TsTest_SplineData4KnotEEdeEv(ptr noundef nonnull align 8 dereferenceable(8) %5) #6
  store ptr %19, ptr %7, align 8
  %20 = load ptr, ptr %7, align 8
  %21 = getelementptr inbounds nuw %"struct.pxrInternal_v0_24__pxrReserved__::TsTest_SplineData::Knot", ptr %20, i32 0, i32 1
  %22 = load i32, ptr %21, align 8
  switch i32 %22, label %36 [
    i32 0, label %23
    i32 1, label %26
    i32 2, label %29
  ]

23:                                               ; preds = %18
  %24 = load i32, ptr %3, align 4
  %25 = or i32 %24, 1
  store i32 %25, ptr %3, align 4
  br label %36

26:                                               ; preds = %18
  %27 = load i32, ptr %3, align 4
  %28 = or i32 %27, 2
  store i32 %28, ptr %3, align 4
  br label %36

29:                                               ; preds = %18
  %30 = getelementptr inbounds nuw %"class.pxrInternal_v0_24__pxrReserved__::TsTest_SplineData", ptr %8, i32 0, i32 0
  %31 = load i8, ptr %30, align 8
  %32 = trunc i8 %31 to i1
  %33 = select i1 %32, i32 8, i32 4
  %34 = load i32, ptr %3, align 4
  %35 = or i32 %34, %33
  store i32 %35, ptr %3, align 4
  br label %36

36:                                               ; preds = %29, %26, %23, %18
  %37 = load ptr, ptr %7, align 8
  %38 = getelementptr inbounds nuw %"struct.pxrInternal_v0_24__pxrReserved__::TsTest_SplineData::Knot", ptr %37, i32 0, i32 4
  %39 = load i8, ptr %38, align 8
  %40 = trunc i8 %39 to i1
  br i1 %40, label %41, label %44

41:                                               ; preds = %36
  %42 = load i32, ptr %3, align 4
  %43 = or i32 %42, 32
  store i32 %43, ptr %3, align 4
  br label %44

44:                                               ; preds = %41, %36
  %45 = load ptr, ptr %7, align 8
  %46 = getelementptr inbounds nuw %"struct.pxrInternal_v0_24__pxrReserved__::TsTest_SplineData::Knot", ptr %45, i32 0, i32 11
  %47 = load i8, ptr %46, align 8
  %48 = trunc i8 %47 to i1
  br i1 %48, label %54, label %49

49:                                               ; preds = %44
  %50 = load ptr, ptr %7, align 8
  %51 = getelementptr inbounds nuw %"struct.pxrInternal_v0_24__pxrReserved__::TsTest_SplineData::Knot", ptr %50, i32 0, i32 12
  %52 = load i8, ptr %51, align 1
  %53 = trunc i8 %52 to i1
  br i1 %53, label %54, label %57

54:                                               ; preds = %49, %44
  %55 = load i32, ptr %3, align 4
  %56 = or i32 %55, 16
  store i32 %56, ptr %3, align 4
  br label %57

57:                                               ; preds = %54, %49
  br label %58

58:                                               ; preds = %57
  %59 = call noundef nonnull align 8 dereferenceable(8) ptr @_ZNSt23_Rb_tree_const_iteratorIN32pxrInternal_v0_24__pxrReserved__17TsTest_SplineData4KnotEEppEv(ptr noundef nonnull align 8 dereferenceable(8) %5) #6
  br label %16

60:                                               ; preds = %16
  %61 = getelementptr inbounds nuw %"class.pxrInternal_v0_24__pxrReserved__::TsTest_SplineData", ptr %8, i32 0, i32 4
  %62 = getelementptr inbounds nuw %"struct.pxrInternal_v0_24__pxrReserved__::TsTest_SplineData::InnerLoopParams", ptr %61, i32 0, i32 0
  %63 = load i8, ptr %62, align 8
  %64 = trunc i8 %63 to i1
  br i1 %64, label %65, label %68

65:                                               ; preds = %60
  %66 = load i32, ptr %3, align 4
  %67 = or i32 %66, 64
  store i32 %67, ptr %3, align 4
  br label %68

68:                                               ; preds = %65, %60
  %69 = getelementptr inbounds nuw %"class.pxrInternal_v0_24__pxrReserved__::TsTest_SplineData", ptr %8, i32 0, i32 2
  %70 = getelementptr inbounds nuw %"struct.pxrInternal_v0_24__pxrReserved__::TsTest_SplineData::Extrapolation", ptr %69, i32 0, i32 0
  %71 = load i32, ptr %70, align 8
  %72 = icmp eq i32 %71, 2
  br i1 %72, label %78, label %73

73:                                               ; preds = %68
  %74 = getelementptr inbounds nuw %"class.pxrInternal_v0_24__pxrReserved__::TsTest_SplineData", ptr %8, i32 0, i32 3
  %75 = getelementptr inbounds nuw %"struct.pxrInternal_v0_24__pxrReserved__::TsTest_SplineData::Extrapolation", ptr %74, i32 0, i32 0
  %76 = load i32, ptr %75, align 8
  %77 = icmp eq i32 %76, 2
  br i1 %77, label %78, label %81

78:                                               ; preds = %73, %68
  %79 = load i32, ptr %3, align 4
  %80 = or i32 %79, 256
  store i32 %80, ptr %3, align 4
  br label %81

81:                                               ; preds = %78, %73
  %82 = getelementptr inbounds nuw %"class.pxrInternal_v0_24__pxrReserved__::TsTest_SplineData", ptr %8, i32 0, i32 2
  %83 = getelementptr inbounds nuw %"struct.pxrInternal_v0_24__pxrReserved__::TsTest_SplineData::Extrapolation", ptr %82, i32 0, i32 0
  %84 = load i32, ptr %83, align 8
  %85 = icmp eq i32 %84, 3
  br i1 %85, label %91, label %86

86:                                               ; preds = %81
  %87 = getelementptr inbounds nuw %"class.pxrInternal_v0_24__pxrReserved__::TsTest_SplineData", ptr %8, i32 0, i32 3
  %88 = getelementptr inbounds nuw %"struct.pxrInternal_v0_24__pxrReserved__::TsTest_SplineData::Extrapolation", ptr %87, i32 0, i32 0
  %89 = load i32, ptr %88, align 8
  %90 = icmp eq i32 %89, 3
  br i1 %90, label %91, label %94

91:                                               ; preds = %86, %81
  %92 = load i32, ptr %3, align 4
  %93 = or i32 %92, 128
  store i32 %93, ptr %3, align 4
  br label %94

94:                                               ; preds = %91, %86
  %95 = load i32, ptr %3, align 4
  ret i32 %95
}