; Function Attrs: mustprogress nofree nounwind willreturn memory(read) uwtable
define noundef range(i32 0, 512) i32 @_ZNK32pxrInternal_v0_24__pxrReserved__17TsTest_SplineData19GetRequiredFeaturesEv(ptr noundef nonnull readonly align 8 dereferenceable(160) %0) local_unnamed_addr #7 align 2 {
  %2 = getelementptr inbounds i8, ptr %0, i64 32
  %3 = load ptr, ptr %2, align 8
  %4 = getelementptr inbounds i8, ptr %0, i64 16
  %.not24 = icmp eq ptr %3, %4
  br i1 %.not24, label %._crit_edge, label %.lr.ph

.lr.ph:                                           ; preds = %1
  %5 = load i8, ptr %0, align 8
  %6 = trunc i8 %5 to i1
  %7 = select i1 %6, i32 8, i32 4
  br label %8

8:                                                ; preds = %.lr.ph, %31
  %.027 = phi i32 [ 0, %.lr.ph ], [ %.3, %31 ]
  %.sroa.021.025 = phi ptr [ %3, %.lr.ph ], [ %32, %31 ]
  %9 = getelementptr inbounds i8, ptr %.sroa.021.025, i64 40
  %10 = load i32, ptr %9, align 8
  switch i32 %10, label %17 [
    i32 0, label %11
    i32 1, label %13
    i32 2, label %15
  ]

11:                                               ; preds = %8
  %12 = or i32 %.027, 1
  br label %17

13:                                               ; preds = %8
  %14 = or i32 %.027, 2
  br label %17

15:                                               ; preds = %8
  %16 = or i32 %7, %.027
  br label %17

17:                                               ; preds = %15, %13, %11, %8
  %.1 = phi i32 [ %.027, %8 ], [ %16, %15 ], [ %14, %13 ], [ %12, %11 ]
  %18 = getelementptr inbounds i8, ptr %.sroa.021.025, i64 56
  %19 = load i8, ptr %18, align 8
  %20 = trunc i8 %19 to i1
  %21 = or i32 %.1, 32
  %spec.select = select i1 %20, i32 %21, i32 %.1
  %22 = getelementptr inbounds i8, ptr %.sroa.021.025, i64 104
  %23 = load i8, ptr %22, align 8
  %24 = trunc i8 %23 to i1
  br i1 %24, label %29, label %25

25:                                               ; preds = %17
  %26 = getelementptr inbounds i8, ptr %.sroa.021.025, i64 105
  %27 = load i8, ptr %26, align 1
  %28 = trunc i8 %27 to i1
  br i1 %28, label %29, label %31

29:                                               ; preds = %25, %17
  %30 = or i32 %spec.select, 16
  br label %31

31:                                               ; preds = %25, %29
  %.3 = phi i32 [ %30, %29 ], [ %spec.select, %25 ]
  %32 = tail call noundef ptr @_ZSt18_Rb_tree_incrementPKSt18_Rb_tree_node_base(ptr noundef nonnull %.sroa.021.025) #21
  %.not = icmp eq ptr %32, %4
  br i1 %.not, label %._crit_edge, label %8

._crit_edge:                                      ; preds = %31, %1
  %.0.lcssa = phi i32 [ 0, %1 ], [ %.3, %31 ]
  %33 = getelementptr inbounds nuw i8, ptr %0, i64 104
  %34 = load i8, ptr %33, align 8
  %35 = trunc i8 %34 to i1
  %36 = or i32 %.0.lcssa, 64
  %spec.select15 = select i1 %35, i32 %36, i32 %.0.lcssa
  %37 = getelementptr inbounds nuw i8, ptr %0, i64 56
  %38 = load i32, ptr %37, align 8
  %39 = icmp eq i32 %38, 2
  %40 = getelementptr inbounds nuw i8, ptr %0, i64 80
  %41 = load i32, ptr %40, align 8
  %42 = icmp eq i32 %41, 2
  %or.cond = select i1 %39, i1 true, i1 %42
  %43 = or i32 %spec.select15, 256
  %.5 = select i1 %or.cond, i32 %43, i32 %spec.select15
  %44 = icmp eq i32 %38, 3
  %45 = icmp eq i32 %41, 3
  %or.cond20 = select i1 %44, i1 true, i1 %45
  %46 = or i32 %.5, 128
  %.6 = select i1 %or.cond20, i32 %46, i32 %.5
  ret i32 %.6
}